; Function Attrs: nounwind uwtable
define internal void @kmac_free(ptr noundef %0) #0 {
  %.not = icmp eq ptr %0, null
  br i1 %.not, label %12, label %2

2:                                                ; preds = %1
  %3 = getelementptr inbounds nuw i8, ptr %0, i64 8
  %4 = load ptr, ptr %3, align 8, !tbaa !14
  tail call void @EVP_MD_CTX_free(ptr noundef %4) #7
  %5 = getelementptr inbounds nuw i8, ptr %0, i64 16
  tail call void @ossl_prov_digest_reset(ptr noundef nonnull %5) #7
  %6 = getelementptr inbounds nuw i8, ptr %0, i64 68
  %7 = getelementptr inbounds nuw i8, ptr %0, i64 48
  %8 = load i64, ptr %7, align 8, !tbaa !15
  tail call void @OPENSSL_cleanse(ptr noundef nonnull %6, i64 noundef %8) #7
  %9 = getelementptr inbounds nuw i8, ptr %0, i64 740
  %10 = getelementptr inbounds nuw i8, ptr %0, i64 56
  %11 = load i64, ptr %10, align 8, !tbaa !16
  tail call void @OPENSSL_cleanse(ptr noundef nonnull %9, i64 noundef %11) #7
  tail call void @CRYPTO_free(ptr noundef nonnull %0, ptr noundef nonnull @.str.2, i32 noundef 163) #7
  br label %12

12:                                               ; preds = %2, %1
  ret void
}